; Function Attrs: nounwind sspstrong uwtable
define hidden void @rb_ec_check_ints(ptr noundef %0) local_unnamed_addr #0 {
  %2 = getelementptr i8, ptr %0, i64 48
  %.val.i = load ptr, ptr %2, align 8, !tbaa !7
  %3 = getelementptr i8, ptr %.val.i, i64 272
  %.val6.i = load i64, ptr %3, align 8, !tbaa !22
  %4 = inttoptr i64 %.val6.i to ptr
  %5 = load i64, ptr %4, align 8, !tbaa !42
  %6 = and i64 %5, 8192
  %.not.i.i.i = icmp eq i64 %6, 0
  br i1 %.not.i.i.i, label %10, label %7

7:                                                ; preds = %1
  %8 = lshr i64 %5, 15
  %9 = and i64 %8, 127
  br label %rb_threadptr_pending_interrupt_empty_p.exit.i

10:                                               ; preds = %1
  %11 = getelementptr inbounds nuw i8, ptr %4, i64 16
  %12 = load i64, ptr %11, align 8, !tbaa !44
  br label %rb_threadptr_pending_interrupt_empty_p.exit.i

rb_threadptr_pending_interrupt_empty_p.exit.i:    ; preds = %10, %7
  %.0.i.i.i = phi i64 [ %9, %7 ], [ %12, %10 ]
  %.not.i = icmp eq i64 %.0.i.i.i, 0
  br i1 %.not.i, label %13, label %18, !prof !45

13:                                               ; preds = %rb_threadptr_pending_interrupt_empty_p.exit.i
  %14 = getelementptr i8, ptr %0, i64 32
  %.val7.i = load i32, ptr %14, align 8, !tbaa !46
  %15 = getelementptr i8, ptr %0, i64 36
  %.val8.i = load i32, ptr %15, align 4, !tbaa !47
  %16 = xor i32 %.val8.i, -1
  %17 = and i32 %.val7.i, %16
  %.not9.i = icmp eq i32 %17, 0
  br i1 %.not9.i, label %vm_check_ints_blocking.exit, label %24, !prof !45

18:                                               ; preds = %rb_threadptr_pending_interrupt_empty_p.exit.i
  %19 = getelementptr inbounds nuw i8, ptr %.val.i, i64 240
  %20 = load i8, ptr %19, align 8
  %21 = and i8 %20, -65
  store i8 %21, ptr %19, align 8
  %22 = getelementptr inbounds nuw i8, ptr %0, i64 32
  %23 = atomicrmw volatile or ptr %22, i32 2 seq_cst, align 4
  br label %24

24:                                               ; preds = %18, %13
  %25 = tail call i32 @rb_threadptr_execute_interrupts(ptr noundef nonnull %.val.i, i32 noundef 1)
  br label %vm_check_ints_blocking.exit

vm_check_ints_blocking.exit:                      ; preds = %13, %24
  ret void
}